target datalayout = "e-m:e-p270:32:32-p271:32:32-p272:64:64-i64:64-i128:128-f80:128-n8:16:32:64-S128"
target triple = "x86_64-pc-linux-gnu"

@.str.34 = private unnamed_addr constant [23 x i8] c"spin: bogus opcode %x\0A\00", align 1
@.str.35 = private unnamed_addr constant [19 x i8] c"spin: bad emucode\0A\00", align 1

; Function Attrs: nounwind uwtable
define internal signext i8 @exec86(i8 noundef zeroext %0, i8 noundef zeroext %1, ptr noundef %2, ptr noundef %3) #0 {
  %5 = alloca i8, align 1
  %6 = alloca i8, align 1
  %7 = alloca i8, align 1
  %8 = alloca ptr, align 8
  %9 = alloca ptr, align 8
  %10 = alloca i32, align 4
  %11 = alloca i8, align 1
  %12 = alloca i8, align 1
  store i8 %0, ptr %6, align 1
  store i8 %1, ptr %7, align 1
  store ptr %2, ptr %8, align 8
  store ptr %3, ptr %9, align 8
  store i32 0, ptr %10, align 4
  %13 = load ptr, ptr %9, align 8
  store i32 0, ptr %13, align 4
  br label %14

14:                                               ; preds = %188, %4
  %15 = load i32, ptr %10, align 4
  %16 = icmp slt i32 %15, 36
  br i1 %16, label %17, label %189

17:                                               ; preds = %14
  %18 = load ptr, ptr %8, align 8
  %19 = load i32, ptr %10, align 4
  %20 = sext i32 %19 to i64
  %21 = getelementptr inbounds i8, ptr %18, i64 %20
  %22 = load i8, ptr %21, align 1
  store i8 %22, ptr %11, align 1
  %23 = load i32, ptr %10, align 4
  %24 = add nsw i32 %23, 1
  store i32 %24, ptr %10, align 4
  %25 = load i8, ptr %11, align 1
  %26 = zext i8 %25 to i32
  switch i32 %26, label %183 [
    i32 235, label %27
    i32 10, label %30
    i32 144, label %33
    i32 248, label %33
    i32 249, label %33
    i32 2, label %34
    i32 42, label %43
    i32 4, label %52
    i32 44, label %65
    i32 50, label %78
    i32 52, label %87
    i32 254, label %100
    i32 192, label %117
  ]

27:                                               ; preds = %17
  %28 = load i32, ptr %10, align 4
  %29 = add nsw i32 %28, 1
  store i32 %29, ptr %10, align 4
  br label %30

30:                                               ; preds = %27, %17
  %31 = load i32, ptr %10, align 4
  %32 = add nsw i32 %31, 1
  store i32 %32, ptr %10, align 4
  br label %33

33:                                               ; preds = %30, %17, %17, %17
  br label %188

34:                                               ; preds = %17
  %35 = load i8, ptr %7, align 1
  %36 = zext i8 %35 to i32
  %37 = load i8, ptr %6, align 1
  %38 = zext i8 %37 to i32
  %39 = add nsw i32 %38, %36
  %40 = trunc i32 %39 to i8
  store i8 %40, ptr %6, align 1
  %41 = load i32, ptr %10, align 4
  %42 = add nsw i32 %41, 1
  store i32 %42, ptr %10, align 4
  br label %188

43:                                               ; preds = %17
  %44 = load i8, ptr %7, align 1
  %45 = zext i8 %44 to i32
  %46 = load i8, ptr %6, align 1
  %47 = zext i8 %46 to i32
  %48 = sub nsw i32 %47, %45
  %49 = trunc i32 %48 to i8
  store i8 %49, ptr %6, align 1
  %50 = load i32, ptr %10, align 4
  %51 = add nsw i32 %50, 1
  store i32 %51, ptr %10, align 4
  br label %188

52:                                               ; preds = %17
  %53 = load ptr, ptr %8, align 8
  %54 = load i32, ptr %10, align 4
  %55 = sext i32 %54 to i64
  %56 = getelementptr inbounds i8, ptr %53, i64 %55
  %57 = load i8, ptr %56, align 1
  %58 = sext i8 %57 to i32
  %59 = load i8, ptr %6, align 1
  %60 = zext i8 %59 to i32
  %61 = add nsw i32 %60, %58
  %62 = trunc i32 %61 to i8
  store i8 %62, ptr %6, align 1
  %63 = load i32, ptr %10, align 4
  %64 = add nsw i32 %63, 1
  store i32 %64, ptr %10, align 4
  br label %188

65:                                               ; preds = %17
  %66 = load ptr, ptr %8, align 8
  %67 = load i32, ptr %10, align 4
  %68 = sext i32 %67 to i64
  %69 = getelementptr inbounds i8, ptr %66, i64 %68
  %70 = load i8, ptr %69, align 1
  %71 = sext i8 %70 to i32
  %72 = load i8, ptr %6, align 1
  %73 = zext i8 %72 to i32
  %74 = sub nsw i32 %73, %71
  %75 = trunc i32 %74 to i8
  store i8 %75, ptr %6, align 1
  %76 = load i32, ptr %10, align 4
  %77 = add nsw i32 %76, 1
  store i32 %77, ptr %10, align 4
  br label %188

78:                                               ; preds = %17
  %79 = load i8, ptr %7, align 1
  %80 = zext i8 %79 to i32
  %81 = load i8, ptr %6, align 1
  %82 = zext i8 %81 to i32
  %83 = xor i32 %82, %80
  %84 = trunc i32 %83 to i8
  store i8 %84, ptr %6, align 1
  %85 = load i32, ptr %10, align 4
  %86 = add nsw i32 %85, 1
  store i32 %86, ptr %10, align 4
  br label %188

87:                                               ; preds = %17
  %88 = load ptr, ptr %8, align 8
  %89 = load i32, ptr %10, align 4
  %90 = sext i32 %89 to i64
  %91 = getelementptr inbounds i8, ptr %88, i64 %90
  %92 = load i8, ptr %91, align 1
  %93 = sext i8 %92 to i32
  %94 = load i8, ptr %6, align 1
  %95 = zext i8 %94 to i32
  %96 = xor i32 %95, %93
  %97 = trunc i32 %96 to i8
  store i8 %97, ptr %6, align 1
  %98 = load i32, ptr %10, align 4
  %99 = add nsw i32 %98, 1
  store i32 %99, ptr %10, align 4
  br label %188

100:                                              ; preds = %17
  %101 = load ptr, ptr %8, align 8
  %102 = load i32, ptr %10, align 4
  %103 = sext i32 %102 to i64
  %104 = getelementptr inbounds i8, ptr %101, i64 %103
  %105 = load i8, ptr %104, align 1
  %106 = sext i8 %105 to i32
  %107 = icmp eq i32 %106, -64
  br i1 %107, label %108, label %111

108:                                              ; preds = %100
  %109 = load i8, ptr %6, align 1
  %110 = add i8 %109, 1
  store i8 %110, ptr %6, align 1
  br label %114

111:                                              ; preds = %100
  %112 = load i8, ptr %6, align 1
  %113 = add i8 %112, -1
  store i8 %113, ptr %6, align 1
  br label %114

114:                                              ; preds = %111, %108
  %115 = load i32, ptr %10, align 4
  %116 = add nsw i32 %115, 1
  store i32 %116, ptr %10, align 4
  br label %188

117:                                              ; preds = %17
  %118 = load ptr, ptr %8, align 8
  %119 = load i32, ptr %10, align 4
  %120 = sext i32 %119 to i64
  %121 = getelementptr inbounds i8, ptr %118, i64 %120
  %122 = load i8, ptr %121, align 1
  store i8 %122, ptr %12, align 1
  %123 = load i32, ptr %10, align 4
  %124 = add nsw i32 %123, 1
  store i32 %124, ptr %10, align 4
  %125 = load i8, ptr %12, align 1
  %126 = zext i8 %125 to i32
  %127 = icmp eq i32 %126, 192
  br i1 %127, label %128, label %154

128:                                              ; preds = %117
  %129 = load i8, ptr %6, align 1
  %130 = zext i8 %129 to i32
  %131 = load ptr, ptr %8, align 8
  %132 = load i32, ptr %10, align 4
  %133 = sext i32 %132 to i64
  %134 = getelementptr inbounds i8, ptr %131, i64 %133
  %135 = load i8, ptr %134, align 1
  %136 = sext i8 %135 to i64
  %137 = and i64 %136, 7
  %138 = trunc i64 %137 to i32
  %139 = shl i32 %130, %138
  %140 = load i8, ptr %6, align 1
  %141 = zext i8 %140 to i32
  %142 = load ptr, ptr %8, align 8
  %143 = load i32, ptr %10, align 4
  %144 = sext i32 %143 to i64
  %145 = getelementptr inbounds i8, ptr %142, i64 %144
  %146 = load i8, ptr %145, align 1
  %147 = sext i8 %146 to i64
  %148 = sub i64 8, %147
  %149 = and i64 %148, 7
  %150 = trunc i64 %149 to i32
  %151 = ashr i32 %141, %150
  %152 = or i32 %139, %151
  %153 = trunc i32 %152 to i8
  store i8 %153, ptr %6, align 1
  br label %180

154:                                              ; preds = %117
  %155 = load i8, ptr %6, align 1
  %156 = zext i8 %155 to i32
  %157 = load ptr, ptr %8, align 8
  %158 = load i32, ptr %10, align 4
  %159 = sext i32 %158 to i64
  %160 = getelementptr inbounds i8, ptr %157, i64 %159
  %161 = load i8, ptr %160, align 1
  %162 = sext i8 %161 to i64
  %163 = and i64 %162, 7
  %164 = trunc i64 %163 to i32
  %165 = ashr i32 %156, %164
  %166 = load i8, ptr %6, align 1
  %167 = zext i8 %166 to i32
  %168 = load ptr, ptr %8, align 8
  %169 = load i32, ptr %10, align 4
  %170 = sext i32 %169 to i64
  %171 = getelementptr inbounds i8, ptr %168, i64 %170
  %172 = load i8, ptr %171, align 1
  %173 = sext i8 %172 to i64
  %174 = sub i64 8, %173
  %175 = and i64 %174, 7
  %176 = trunc i64 %175 to i32
  %177 = shl i32 %167, %176
  %178 = or i32 %165, %177
  %179 = trunc i32 %178 to i8
  store i8 %179, ptr %6, align 1
  br label %180

180:                                              ; preds = %154, %128
  %181 = load i32, ptr %10, align 4
  %182 = add nsw i32 %181, 1
  store i32 %182, ptr %10, align 4
  br label %188

183:                                              ; preds = %17
  %184 = load i8, ptr %11, align 1
  %185 = zext i8 %184 to i32
  call void (ptr, ...) @cli_dbgmsg(ptr noundef @.str.34, i32 noundef %185)
  %186 = load ptr, ptr %9, align 8
  store i32 1, ptr %186, align 4
  %187 = load i8, ptr %6, align 1
  store i8 %187, ptr %5, align 1
  br label %204

188:                                              ; preds = %180, %114, %87, %78, %65, %52, %43, %34, %33
  br label %14

189:                                              ; preds = %14
  %190 = load i32, ptr %10, align 4
  %191 = icmp ne i32 %190, 36
  br i1 %191, label %200, label %192

192:                                              ; preds = %189
  %193 = load ptr, ptr %8, align 8
  %194 = load i32, ptr %10, align 4
  %195 = sext i32 %194 to i64
  %196 = getelementptr inbounds i8, ptr %193, i64 %195
  %197 = load i8, ptr %196, align 1
  %198 = sext i8 %197 to i32
  %199 = icmp ne i32 %198, -86
  br i1 %199, label %200, label %202

200:                                              ; preds = %192, %189
  call void (ptr, ...) @cli_dbgmsg(ptr noundef @.str.35)
  %201 = load ptr, ptr %9, align 8
  store i32 1, ptr %201, align 4
  br label %202

202:                                              ; preds = %200, %192
  %203 = load i8, ptr %6, align 1
  store i8 %203, ptr %5, align 1
  br label %204

204:                                              ; preds = %202, %183
  %205 = load i8, ptr %5, align 1
  ret i8 %205
}